; Function Attrs: nounwind uwtable
define dso_local range(i32 -30, 1) i32 @archive_write_add_filter_lzip(ptr noundef %0) local_unnamed_addr #0 {
  %2 = tail call i32 @__archive_check_magic(ptr noundef %0, i32 noundef -1329217314, i32 noundef 1, ptr noundef nonnull @.str.4) #13
  %.not = icmp eq i32 %2, -30
  br i1 %.not, label %18, label %3

3:                                                ; preds = %1
  %4 = tail call ptr @__archive_write_allocate_filter(ptr noundef %0) #13
  %5 = getelementptr inbounds nuw i8, ptr %4, i64 8
  %6 = load ptr, ptr %5, align 8, !tbaa !4
  %7 = tail call noalias dereferenceable_or_null(328) ptr @calloc(i64 noundef 1, i64 noundef 328) #14
  %8 = icmp eq ptr %7, null
  br i1 %8, label %common_setup.exit, label %9

common_setup.exit:                                ; preds = %3
  tail call void (ptr, i32, ptr, ...) @archive_set_error(ptr noundef %6, i32 noundef 12, ptr noundef nonnull @.str.6) #13
  br label %18

9:                                                ; preds = %3
  %10 = getelementptr inbounds nuw i8, ptr %4, i64 72
  store ptr %7, ptr %10, align 8, !tbaa !14
  store i32 6, ptr %7, align 8, !tbaa !15
  %11 = getelementptr inbounds nuw i8, ptr %7, i64 4
  store i32 1, ptr %11, align 4, !tbaa !20
  %12 = getelementptr inbounds nuw i8, ptr %4, i64 32
  store ptr @archive_compressor_xz_open, ptr %12, align 8, !tbaa !21
  %13 = getelementptr inbounds nuw i8, ptr %4, i64 56
  store ptr @archive_compressor_xz_close, ptr %13, align 8, !tbaa !22
  %14 = getelementptr inbounds nuw i8, ptr %4, i64 64
  store ptr @archive_compressor_xz_free, ptr %14, align 8, !tbaa !23
  %15 = getelementptr inbounds nuw i8, ptr %4, i64 24
  store ptr @archive_compressor_xz_options, ptr %15, align 8, !tbaa !24
  %16 = getelementptr inbounds nuw i8, ptr %4, i64 88
  store i32 9, ptr %16, align 8, !tbaa !25
  %17 = getelementptr inbounds nuw i8, ptr %4, i64 80
  store ptr @.str.5, ptr %17, align 8, !tbaa !26
  br label %18

18:                                               ; preds = %common_setup.exit, %9, %1
  %.1 = phi i32 [ -30, %1 ], [ 0, %9 ], [ -30, %common_setup.exit ]
  ret i32 %.1
}